(dp1
S'diss'
p2
ccopy_reg
_reconstructor
p3
(ctwisted.plugin
CachedDropin
p4
c__builtin__
object
p5
NtRp6
(dp7
S'moduleName'
p8
S'twisted.plugins.diss'
p9
sS'description'
p10
NsS'plugins'
p11
(lp12
g3
(ctwisted.plugin
CachedPlugin
p13
g5
NtRp14
(dp15
S'provided'
p16
(lp17
ctwisted.plugin
IPlugin
p18
acmodules.interfaces
ICommandWatcher
p19
asS'dropin'
p20
g6
sS'name'
p21
S'd'
sg10
NsbasbsS'fortune'
p22
g3
(g4
g5
NtRp23
(dp24
S'moduleName'
p25
S'twisted.plugins.fortune'
p26
sS'description'
p27
NsS'plugins'
p28
(lp29
g3
(g13
g5
NtRp30
(dp31
S'provided'
p32
(lp33
g18
ag19
asS'dropin'
p34
g23
sS'name'
p35
S'f'
sg27
NsbasbsS'wordnik'
p36
g3
(g4
g5
NtRp37
(dp38
S'moduleName'
p39
S'twisted.plugins.wordnik'
p40
sS'description'
p41
NsS'plugins'
p42
(lp43
g3
(g13
g5
NtRp44
(dp45
S'provided'
p46
(lp47
g18
acmodules.interfaces
IMessageWatcher
p48
ag19
asS'dropin'
p49
g37
sS'name'
p50
S'wordnik'
p51
sg41
NsbasbsS'tiny'
p52
g3
(g4
g5
NtRp53
(dp54
S'moduleName'
p55
S'twisted.plugins.tiny'
p56
sS'description'
p57
NsS'plugins'
p58
(lp59
g3
(g13
g5
NtRp60
(dp61
S'provided'
p62
(lp63
g18
ag48
ag19
asS'dropin'
p64
g53
sS'name'
p65
S't'
sg57
NsbasbsS'beer'
p66
g3
(g4
g5
NtRp67
(dp68
S'moduleName'
p69
S'twisted.plugins.beer'
p70
sS'description'
p71
NsS'plugins'
p72
(lp73
g3
(g13
g5
NtRp74
(dp75
S'provided'
p76
(lp77
g18
ag19
asS'dropin'
p78
g67
sS'name'
p79
S'bdb'
p80
sg71
NsbasbsS'mongo_logger'
p81
g3
(g4
g5
NtRp82
(dp83
S'moduleName'
p84
S'twisted.plugins.mongo_logger'
p85
sS'description'
p86
NsS'plugins'
p87
(lp88
g3
(g13
g5
NtRp89
(dp90
S'provided'
p91
(lp92
g18
ag48
ag19
asS'dropin'
p93
g82
sS'name'
p94
S'logger'
p95
sg86
NsbasbsS'props'
p96
g3
(g4
g5
NtRp97
(dp98
S'moduleName'
p99
S'twisted.plugins.props'
p100
sS'description'
p101
NsS'plugins'
p102
(lp103
g3
(g13
g5
NtRp104
(dp105
S'provided'
p106
(lp107
g18
ag19
asS'dropin'
p108
g97
sS'name'
p109
S'd'
sg101
NsbasbsS'monkey'
p110
g3
(g4
g5
NtRp111
(dp112
S'moduleName'
p113
S'twisted.plugins.monkey'
p114
sS'description'
p115
NsS'plugins'
p116
(lp117
g3
(g13
g5
NtRp118
(dp119
S'provided'
p120
(lp121
g18
ag19
ag48
asS'dropin'
p122
g111
sS'name'
p123
S'm'
sg115
Nsbasbs.