(dp1
S'mongo_logger'
p2
ccopy_reg
_reconstructor
p3
(ctwisted.plugin
CachedDropin
p4
c__builtin__
object
p5
NtRp6
(dp7
S'moduleName'
p8
S'twisted.plugins.mongo_logger'
p9
sS'description'
p10
NsS'plugins'
p11
(lp12
g3
(ctwisted.plugin
CachedPlugin
p13
g5
NtRp14
(dp15
S'provided'
p16
(lp17
ctwisted.plugin
IPlugin
p18
acmodules.interfaces
IMessageWatcher
p19
acmodules.interfaces
ICommandWatcher
p20
asS'dropin'
p21
g6
sS'name'
p22
S'logger'
p23
sg10
NsbasbsS'beer'
p24
g3
(g4
g5
NtRp25
(dp26
S'moduleName'
p27
S'twisted.plugins.beer'
p28
sS'description'
p29
NsS'plugins'
p30
(lp31
g3
(g13
g5
NtRp32
(dp33
S'provided'
p34
(lp35
g18
ag20
asS'dropin'
p36
g25
sS'name'
p37
S'bdb'
p38
sg29
NsbasbsS'diss'
p39
g3
(g4
g5
NtRp40
(dp41
S'moduleName'
p42
S'twisted.plugins.diss'
p43
sS'description'
p44
NsS'plugins'
p45
(lp46
g3
(g13
g5
NtRp47
(dp48
S'provided'
p49
(lp50
g18
ag20
asS'dropin'
p51
g40
sS'name'
p52
S'd'
sg44
NsbasbsS'wordnik'
p53
g3
(g4
g5
NtRp54
(dp55
S'moduleName'
p56
S'twisted.plugins.wordnik'
p57
sS'description'
p58
NsS'plugins'
p59
(lp60
g3
(g13
g5
NtRp61
(dp62
S'provided'
p63
(lp64
g18
ag19
ag20
asS'dropin'
p65
g54
sS'name'
p66
S'wordnik'
p67
sg58
NsbasbsS'tiny'
p68
g3
(g4
g5
NtRp69
(dp70
S'moduleName'
p71
S'twisted.plugins.tiny'
p72
sS'description'
p73
NsS'plugins'
p74
(lp75
g3
(g13
g5
NtRp76
(dp77
S'provided'
p78
(lp79
g18
ag19
ag20
asS'dropin'
p80
g69
sS'name'
p81
S't'
sg73
Nsbasbs.