(dp1
S'channeljoiner'
p2
ccopy_reg
_reconstructor
p3
(ctwisted.plugin
CachedDropin
p4
c__builtin__
object
p5
NtRp6
(dp7
S'moduleName'
p8
S'twisted.plugins.channeljoiner'
p9
sS'description'
p10
NsS'plugins'
p11
(lp12
sbsS'ecko'
p13
g3
(g4
g5
NtRp14
(dp15
S'moduleName'
p16
S'twisted.plugins.ecko'
p17
sS'description'
p18
NsS'plugins'
p19
(lp20
g3
(ctwisted.plugin
CachedPlugin
p21
g5
NtRp22
(dp23
S'provided'
p24
(lp25
ctwisted.plugin
IPlugin
p26
acmodules.interfaces
IMessageWatcher
p27
acmodules.interfaces
ICommandWatcher
p28
asS'dropin'
p29
g14
sS'name'
p30
S'e'
sg18
NsbasbsS'cry'
p31
g3
(g4
g5
NtRp32
(dp33
S'moduleName'
p34
S'twisted.plugins.cry'
p35
sS'description'
p36
NsS'plugins'
p37
(lp38
g3
(g21
g5
NtRp39
(dp40
S'provided'
p41
(lp42
g26
acmodules.interfaces
IActionWatcher
p43
asS'dropin'
p44
g32
sS'name'
p45
S'c'
sg36
NsbasbsS'rot13'
p46
g3
(g4
g5
NtRp47
(dp48
g16
S'twisted.plugins.rot13'
p49
sg18
Nsg19
(lp50
g3
(g21
g5
NtRp51
(dp52
g24
(lp53
g26
ag27
asg29
g47
sg30
S'r'
sg18
NsbasbsS'laugh'
p54
g3
(g4
g5
NtRp55
(dp56
g34
S'twisted.plugins.laugh'
p57
sg36
Nsg37
(lp58
g3
(g21
g5
NtRp59
(dp60
g41
(lp61
g26
ag43
asg44
g55
sg45
S'l'
sg36
NsbasbsS'logger'
p62
g3
(g4
g5
NtRp63
(dp64
g16
S'twisted.plugins.logger'
p65
sg18
Nsg19
(lp66
g3
(g21
g5
NtRp67
(dp68
g24
(lp69
g26
ag27
asg29
g63
sg30
S'e'
sg18
Nsbasbs.