(dp1
S'imessagewatcher'
p2
ccopy_reg
_reconstructor
p3
(ctwisted.plugin
CachedDropin
p4
c__builtin__
object
p5
NtRp6
(dp7
S'moduleName'
p8
S'twisted.plugins.imessagewatcher'
p9
sS'description'
p10
NsS'plugins'
p11
(lp12
sbsS'rot13'
p13
g3
(g4
g5
NtRp14
(dp15
S'moduleName'
p16
S'twisted.plugins.rot13'
p17
sS'description'
p18
NsS'plugins'
p19
(lp20
g3
(ctwisted.plugin
CachedPlugin
p21
g5
NtRp22
(dp23
S'provided'
p24
(lp25
ctwisted.plugin
IPlugin
p26
acmodules.interfaces
IMessageWatcher
p27
asS'dropin'
p28
g14
sS'name'
p29
S'r'
sg18
NsbasbsS'logger'
p30
g3
(g4
g5
NtRp31
(dp32
g16
S'twisted.plugins.logger'
p33
sg18
Nsg19
(lp34
g3
(g21
g5
NtRp35
(dp36
g24
(lp37
g26
ag27
asg28
g31
sg29
S'e'
sg18
NsbasbsS'ecko'
p38
g3
(g4
g5
NtRp39
(dp40
S'moduleName'
p41
S'twisted.plugins.ecko'
p42
sS'description'
p43
NsS'plugins'
p44
(lp45
g3
(g21
g5
NtRp46
(dp47
S'provided'
p48
(lp49
g26
ag27
acmodules.interfaces
IActionWatcher
p50
asS'dropin'
p51
g39
sS'name'
p52
S'e'
sg43
NsbasbsS'icommandwatcher'
p53
g3
(g4
g5
NtRp54
(dp55
g8
S'twisted.plugins.icommandwatcher'
p56
sg10
Nsg11
(lp57
sbs.